; Function Attrs: nounwind uwtable
define ptr @l_Lake_foldlUtf8M___rarg___lambda__6___boxed(ptr noundef %0, ptr noundef %1, ptr noundef %2, ptr noundef %3, ptr noundef %4) #1 {
  %6 = ptrtoint ptr %0 to i64
  %7 = and i64 %6, 1
  %.not = icmp eq i64 %7, 0
  br i1 %.not, label %8, label %lean_dec.exit

8:                                                ; preds = %5
  %9 = load i32, ptr %0, align 4, !tbaa !4
  %10 = icmp sgt i32 %9, 1
  br i1 %10, label %11, label %13, !prof !9

11:                                               ; preds = %8
  %12 = add nsw i32 %9, -1
  store i32 %12, ptr %0, align 4, !tbaa !4
  br label %lean_dec.exit

13:                                               ; preds = %8
  %.not.i = icmp eq i32 %9, 0
  br i1 %.not.i, label %lean_dec.exit, label %14

14:                                               ; preds = %13
  tail call void @lean_dec_ref_cold(ptr noundef nonnull %0) #7
  br label %lean_dec.exit

lean_dec.exit:                                    ; preds = %14, %13, %11, %5
  %15 = and i64 %6, 126
  %16 = or disjoint i64 %15, 257
  %17 = inttoptr i64 %16 to ptr
  %18 = tail call ptr @lean_apply_2(ptr noundef %1, ptr noundef %4, ptr noundef nonnull %17) #7
  tail call void @lean_inc_heartbeat() #7
  %19 = tail call noalias ptr @mi_malloc_small(i64 noundef 32) #7
  %20 = icmp eq ptr %19, null
  br i1 %20, label %21, label %l_Lake_foldlUtf8M___rarg___lambda__6.exit

21:                                               ; preds = %lean_dec.exit
  tail call void @lean_internal_panic_out_of_memory() #8
  unreachable

l_Lake_foldlUtf8M___rarg___lambda__6.exit:        ; preds = %lean_dec.exit
  %22 = getelementptr inbounds nuw i8, ptr %19, i64 4
  store i32 1, ptr %19, align 4, !tbaa !4
  store i32 -184549344, ptr %22, align 4
  %23 = getelementptr inbounds nuw i8, ptr %19, i64 8
  store ptr @l_Lake_foldlUtf8M___rarg___lambda__1, ptr %23, align 8, !tbaa !10
  %24 = getelementptr inbounds nuw i8, ptr %19, i64 16
  store i16 2, ptr %24, align 8, !tbaa !14
  %25 = getelementptr inbounds nuw i8, ptr %19, i64 18
  store i16 1, ptr %25, align 2, !tbaa !14
  %26 = getelementptr inbounds nuw i8, ptr %19, i64 24
  store ptr %2, ptr %26, align 8, !tbaa !10
  %27 = tail call ptr @lean_apply_4(ptr noundef %3, ptr noundef nonnull inttoptr (i64 1 to ptr), ptr noundef nonnull inttoptr (i64 1 to ptr), ptr noundef %18, ptr noundef nonnull %19) #7
  ret ptr %27
}